; Function Attrs: mustprogress uwtable
define noalias noundef nonnull ptr @_ZNK10FloatValue5cloneEv(ptr nocapture noundef nonnull readonly align 8 dereferenceable(12) %0) unnamed_addr #2 align 2 {
  %2 = tail call noalias noundef nonnull dereferenceable(16) ptr @_Znwm(i64 noundef 16) #13
  store ptr getelementptr inbounds ({ [25 x ptr] }, ptr @_ZTV10FloatValue, i64 0, i32 0, i64 2), ptr %2, align 8
  %3 = getelementptr inbounds i8, ptr %2, i64 8
  %4 = getelementptr inbounds i8, ptr %0, i64 8
  %5 = load float, ptr %4, align 8
  store float %5, ptr %3, align 8
  ret ptr %2
}